target datalayout = "e-m:e-p270:32:32-p271:32:32-p272:64:64-i64:64-i128:128-f80:128-n8:16:32:64-S128"
target triple = "x86_64-pc-linux-gnu"

%struct.sentinelState = type { [41 x i8], i64, ptr, i32, i32, i64, i64, ptr, ptr, i32, i64, i32, ptr, ptr, i32, i32 }
%struct.sentinelAddr = type { ptr, ptr, i32 }

@sentinel = dso_local global %struct.sentinelState zeroinitializer, align 8

; Function Attrs: nounwind uwtable
define dso_local i32 @sentinelAddrEqualsHostname(ptr noundef %0, ptr noundef %1) #0 {
  %3 = alloca i32, align 4
  %4 = alloca ptr, align 8
  %5 = alloca ptr, align 8
  %6 = alloca [46 x i8], align 16
  %7 = alloca i32, align 4
  store ptr %0, ptr %4, align 8, !tbaa !94
  store ptr %1, ptr %5, align 8, !tbaa !93
  call void @llvm.lifetime.start.p0(i64 46, ptr %6) #16
  %8 = load ptr, ptr %5, align 8, !tbaa !93
  %9 = getelementptr inbounds [46 x i8], ptr %6, i64 0, i64 0
  %10 = load i32, ptr getelementptr inbounds nuw (%struct.sentinelState, ptr @sentinel, i32 0, i32 14), align 8, !tbaa !77
  %11 = icmp ne i32 %10, 0
  %12 = select i1 %11, i32 0, i32 1
  %13 = call i32 @anetResolve(ptr noundef null, ptr noundef %8, ptr noundef %9, i64 noundef 46, i32 noundef %12)
  %14 = icmp eq i32 %13, -1
  br i1 %14, label %15, label %33

15:                                               ; preds = %2
  %16 = load i32, ptr getelementptr inbounds nuw (%struct.sentinelState, ptr @sentinel, i32 0, i32 14), align 8, !tbaa !77
  %17 = icmp ne i32 %16, 0
  br i1 %17, label %18, label %22

18:                                               ; preds = %15
  %19 = load ptr, ptr %4, align 8, !tbaa !94
  %20 = getelementptr inbounds nuw %struct.sentinelAddr, ptr %19, i32 0, i32 0
  %21 = load ptr, ptr %20, align 8, !tbaa !95
  br label %26

22:                                               ; preds = %15
  %23 = load ptr, ptr %4, align 8, !tbaa !94
  %24 = getelementptr inbounds nuw %struct.sentinelAddr, ptr %23, i32 0, i32 1
  %25 = load ptr, ptr %24, align 8, !tbaa !97
  br label %26

26:                                               ; preds = %22, %18
  %27 = phi ptr [ %21, %18 ], [ %25, %22 ]
  %28 = load ptr, ptr %5, align 8, !tbaa !93
  %29 = call i32 @strcasecmp(ptr noundef %27, ptr noundef %28) #19
  %30 = icmp ne i32 %29, 0
  %31 = xor i1 %30, true
  %32 = zext i1 %31 to i32
  store i32 %32, ptr %3, align 4
  store i32 1, ptr %7, align 4
  br label %42

33:                                               ; preds = %2
  %34 = load ptr, ptr %4, align 8, !tbaa !94
  %35 = getelementptr inbounds nuw %struct.sentinelAddr, ptr %34, i32 0, i32 1
  %36 = load ptr, ptr %35, align 8, !tbaa !97
  %37 = getelementptr inbounds [46 x i8], ptr %6, i64 0, i64 0
  %38 = call i32 @strcasecmp(ptr noundef %36, ptr noundef %37) #19
  %39 = icmp ne i32 %38, 0
  %40 = xor i1 %39, true
  %41 = zext i1 %40 to i32
  store i32 %41, ptr %3, align 4
  store i32 1, ptr %7, align 4
  br label %42

42:                                               ; preds = %33, %26
  call void @llvm.lifetime.end.p0(i64 46, ptr %6) #16
  %43 = load i32, ptr %3, align 4
  ret i32 %43
}