; Function Attrs: nounwind uwtable
define dso_local range(i32 0, 2) i32 @sentinelAddrEqualsHostname(ptr noundef readonly captures(none) %0, ptr noundef %1) local_unnamed_addr #0 {
  %3 = alloca [46 x i8], align 16
  call void @llvm.lifetime.start.p0(i64 46, ptr nonnull %3) #30
  %4 = load i32, ptr getelementptr inbounds nuw (i8, ptr @sentinel, i64 144), align 8, !tbaa !85
  %.not = icmp eq i32 %4, 0
  %5 = zext i1 %.not to i32
  %6 = call i32 @anetResolve(ptr noundef null, ptr noundef %1, ptr noundef nonnull %3, i64 noundef 46, i32 noundef %5) #30
  %7 = icmp eq i32 %6, -1
  %8 = load i32, ptr getelementptr inbounds nuw (i8, ptr @sentinel, i64 144), align 8
  %.not6 = icmp eq i32 %8, 0
  %.in.idx = select i1 %.not6, i64 8, i64 0
  %.sink = select i1 %7, i64 %.in.idx, i64 8
  %.sink8 = select i1 %7, ptr %1, ptr %3
  %9 = getelementptr inbounds nuw i8, ptr %0, i64 %.sink
  %10 = load ptr, ptr %9, align 8, !tbaa !87
  %11 = call i32 @strcasecmp(ptr noundef %10, ptr noundef %.sink8) #34
  %.0.in = icmp eq i32 %11, 0
  %.0 = zext i1 %.0.in to i32
  call void @llvm.lifetime.end.p0(i64 46, ptr nonnull %3) #30
  ret i32 %.0
}